target datalayout = "e-m:e-p270:32:32-p271:32:32-p272:64:64-i64:64-i128:128-f80:128-n8:16:32:64-S128"
target triple = "x86_64-pc-linux-gnu"

@.str.278 = private unnamed_addr constant [25 x i8] c"Invalid number type: %c\0A\00", align 1
@.str.279 = private unnamed_addr constant [46 x i8] c"End of line encountered while reading number\0A\00", align 1
@.str.280 = private unnamed_addr constant [25 x i8] c"Invalid number part: %c\0A\00", align 1
@.str.282 = private unnamed_addr constant [31 x i8] c"Data start marker missing: %c\0A\00", align 1
@.str.283 = private unnamed_addr constant [31 x i8] c"Line ended while reading data\0A\00", align 1
@.str.284 = private unnamed_addr constant [33 x i8] c"Cannot allocate memory for data\0A\00", align 1
@.str.285 = private unnamed_addr constant [25 x i8] c"Invalid data part: %c%c\0A\00", align 1

; Function Attrs: nounwind uwtable
define internal i64 @readNumber(ptr noundef %0, ptr noundef %1, i32 noundef %2, ptr noundef %3) #0 {
  %5 = alloca i64, align 8
  %6 = alloca ptr, align 8
  %7 = alloca ptr, align 8
  %8 = alloca i32, align 4
  %9 = alloca ptr, align 8
  %10 = alloca i64, align 8
  %11 = alloca i32, align 4
  %12 = alloca i32, align 4
  %13 = alloca i32, align 4
  %14 = alloca i32, align 4
  %15 = alloca i32, align 4
  %16 = alloca i64, align 8
  store ptr %0, ptr %6, align 8
  store ptr %1, ptr %7, align 8
  store i32 %2, ptr %8, align 4
  store ptr %3, ptr %9, align 8
  store i64 0, ptr %10, align 8
  %17 = load ptr, ptr %6, align 8
  %18 = load ptr, ptr %7, align 8
  %19 = load i32, ptr %18, align 4
  %20 = zext i32 %19 to i64
  %21 = getelementptr inbounds i8, ptr %17, i64 %20
  %22 = load i8, ptr %21, align 1
  %23 = zext i8 %22 to i32
  store i32 %23, ptr %14, align 4
  store i32 0, ptr %15, align 4
  %24 = load i32, ptr %14, align 4
  %25 = sub i32 %24, 96
  store i32 %25, ptr %13, align 4
  %26 = load i32, ptr %13, align 4
  %27 = icmp ugt i32 %26, 16
  br i1 %27, label %28, label %31

28:                                               ; preds = %4
  %29 = load i32, ptr %14, align 4
  call void (ptr, ...) @cli_errmsg(ptr noundef @.str.278, i32 noundef %29)
  %30 = load ptr, ptr %9, align 8
  store i8 0, ptr %30, align 1
  store i64 0, ptr %5, align 8
  br label %95

31:                                               ; preds = %4
  %32 = load ptr, ptr %7, align 8
  %33 = load i32, ptr %32, align 4
  %34 = load i32, ptr %13, align 4
  %35 = add i32 %33, %34
  %36 = add i32 %35, 1
  store i32 %36, ptr %12, align 4
  %37 = load i32, ptr %12, align 4
  %38 = load i32, ptr %8, align 4
  %39 = icmp ugt i32 %37, %38
  br i1 %39, label %40, label %42

40:                                               ; preds = %31
  call void (ptr, ...) @cli_errmsg(ptr noundef @.str.279)
  %41 = load ptr, ptr %9, align 8
  store i8 0, ptr %41, align 1
  store i64 0, ptr %5, align 8
  br label %95

42:                                               ; preds = %31
  %43 = load i32, ptr %14, align 4
  %44 = icmp eq i32 %43, 96
  br i1 %44, label %45, label %48

45:                                               ; preds = %42
  %46 = load i32, ptr %12, align 4
  %47 = load ptr, ptr %7, align 8
  store i32 %46, ptr %47, align 4
  store i64 0, ptr %5, align 8
  br label %95

48:                                               ; preds = %42
  %49 = load ptr, ptr %7, align 8
  %50 = load i32, ptr %49, align 4
  %51 = add i32 %50, 1
  store i32 %51, ptr %11, align 4
  br label %52

52:                                               ; preds = %88, %48
  %53 = load i32, ptr %11, align 4
  %54 = load i32, ptr %12, align 4
  %55 = icmp ult i32 %53, %54
  br i1 %55, label %56, label %91

56:                                               ; preds = %52
  %57 = load ptr, ptr %6, align 8
  %58 = load i32, ptr %11, align 4
  %59 = zext i32 %58 to i64
  %60 = getelementptr inbounds i8, ptr %57, i64 %59
  %61 = load i8, ptr %60, align 1
  %62 = zext i8 %61 to i64
  store i64 %62, ptr %16, align 8
  %63 = load i64, ptr %16, align 8
  %64 = and i64 %63, 240
  %65 = icmp ne i64 %64, 96
  %66 = xor i1 %65, true
  %67 = xor i1 %66, true
  %68 = zext i1 %67 to i32
  %69 = sext i32 %68 to i64
  %70 = icmp ne i64 %69, 0
  br i1 %70, label %71, label %76

71:                                               ; preds = %56
  %72 = load i64, ptr %16, align 8
  %73 = trunc i64 %72 to i8
  %74 = sext i8 %73 to i32
  call void (ptr, ...) @cli_errmsg(ptr noundef @.str.280, i32 noundef %74)
  %75 = load ptr, ptr %9, align 8
  store i8 0, ptr %75, align 1
  store i64 0, ptr %5, align 8
  br label %95

76:                                               ; preds = %56
  %77 = load i64, ptr %16, align 8
  %78 = and i64 %77, 15
  store i64 %78, ptr %16, align 8
  %79 = load i32, ptr %15, align 4
  %80 = load i64, ptr %16, align 8
  %81 = zext i32 %79 to i64
  %82 = shl i64 %80, %81
  store i64 %82, ptr %16, align 8
  %83 = load i64, ptr %16, align 8
  %84 = load i64, ptr %10, align 8
  %85 = or i64 %84, %83
  store i64 %85, ptr %10, align 8
  %86 = load i32, ptr %15, align 4
  %87 = add i32 %86, 4
  store i32 %87, ptr %15, align 4
  br label %88

88:                                               ; preds = %76
  %89 = load i32, ptr %11, align 4
  %90 = add i32 %89, 1
  store i32 %90, ptr %11, align 4
  br label %52

91:                                               ; preds = %52
  %92 = load i32, ptr %12, align 4
  %93 = load ptr, ptr %7, align 8
  store i32 %92, ptr %93, align 4
  %94 = load i64, ptr %10, align 8
  store i64 %94, ptr %5, align 8
  br label %95

95:                                               ; preds = %91, %71, %45, %40, %28
  %96 = load i64, ptr %5, align 8
  ret i64 %96
}

; Function Attrs: nounwind uwtable
define internal ptr @readData(ptr noundef %0, ptr noundef %1, i32 noundef %2, ptr noundef %3, ptr noundef %4) #0 {
  %6 = alloca ptr, align 8
  %7 = alloca ptr, align 8
  %8 = alloca ptr, align 8
  %9 = alloca i32, align 4
  %10 = alloca ptr, align 8
  %11 = alloca ptr, align 8
  %12 = alloca ptr, align 8
  %13 = alloca ptr, align 8
  %14 = alloca i32, align 4
  %15 = alloca i32, align 4
  %16 = alloca i32, align 4
  %17 = alloca i8, align 1
  %18 = alloca i8, align 1
  store ptr %0, ptr %7, align 8
  store ptr %1, ptr %8, align 8
  store i32 %2, ptr %9, align 4
  store ptr %3, ptr %10, align 8
  store ptr %4, ptr %11, align 8
  %19 = load ptr, ptr %7, align 8
  %20 = load ptr, ptr %8, align 8
  %21 = load i32, ptr %20, align 4
  %22 = zext i32 %21 to i64
  %23 = getelementptr inbounds i8, ptr %19, i64 %22
  %24 = load i8, ptr %23, align 1
  %25 = zext i8 %24 to i32
  %26 = icmp ne i32 %25, 124
  br i1 %26, label %27, label %36

27:                                               ; preds = %5
  %28 = load ptr, ptr %7, align 8
  %29 = load ptr, ptr %8, align 8
  %30 = load i32, ptr %29, align 4
  %31 = zext i32 %30 to i64
  %32 = getelementptr inbounds i8, ptr %28, i64 %31
  %33 = load i8, ptr %32, align 1
  %34 = zext i8 %33 to i32
  call void (ptr, ...) @cli_errmsg(ptr noundef @.str.282, i32 noundef %34)
  %35 = load ptr, ptr %10, align 8
  store i8 0, ptr %35, align 1
  store ptr null, ptr %6, align 8
  br label %137

36:                                               ; preds = %5
  %37 = load ptr, ptr %8, align 8
  %38 = load i32, ptr %37, align 4
  %39 = add i32 %38, 1
  store i32 %39, ptr %37, align 4
  %40 = load ptr, ptr %7, align 8
  %41 = load ptr, ptr %8, align 8
  %42 = load i32, ptr %9, align 4
  %43 = load ptr, ptr %10, align 8
  %44 = call i64 @readNumber(ptr noundef %40, ptr noundef %41, i32 noundef %42, ptr noundef %43)
  %45 = trunc i64 %44 to i32
  store i32 %45, ptr %14, align 4
  %46 = load i32, ptr %14, align 4
  %47 = icmp ne i32 %46, 0
  br i1 %47, label %48, label %51

48:                                               ; preds = %36
  %49 = load ptr, ptr %10, align 8
  %50 = icmp ne ptr %49, null
  br i1 %50, label %54, label %51

51:                                               ; preds = %48, %36
  %52 = load i32, ptr %14, align 4
  %53 = load ptr, ptr %11, align 8
  store i32 %52, ptr %53, align 4
  store ptr null, ptr %6, align 8
  br label %137

54:                                               ; preds = %48
  %55 = load ptr, ptr %8, align 8
  %56 = load i32, ptr %55, align 4
  %57 = load i32, ptr %14, align 4
  %58 = mul i32 2, %57
  %59 = add i32 %56, %58
  store i32 %59, ptr %15, align 4
  %60 = load i32, ptr %15, align 4
  %61 = load i32, ptr %9, align 4
  %62 = icmp ugt i32 %60, %61
  br i1 %62, label %63, label %65

63:                                               ; preds = %54
  call void (ptr, ...) @cli_errmsg(ptr noundef @.str.283)
  %64 = load ptr, ptr %10, align 8
  store i8 0, ptr %64, align 1
  store ptr null, ptr %6, align 8
  br label %137

65:                                               ; preds = %54
  %66 = load i32, ptr %14, align 4
  %67 = zext i32 %66 to i64
  %68 = call noalias ptr @malloc(i64 noundef %67) #11
  store ptr %68, ptr %12, align 8
  %69 = load ptr, ptr %12, align 8
  %70 = icmp ne ptr %69, null
  br i1 %70, label %73, label %71

71:                                               ; preds = %65
  call void (ptr, ...) @cli_errmsg(ptr noundef @.str.284)
  %72 = load ptr, ptr %10, align 8
  store i8 0, ptr %72, align 1
  store ptr null, ptr %6, align 8
  br label %137

73:                                               ; preds = %65
  %74 = load ptr, ptr %12, align 8
  store ptr %74, ptr %13, align 8
  %75 = load ptr, ptr %8, align 8
  %76 = load i32, ptr %75, align 4
  store i32 %76, ptr %16, align 4
  br label %77

77:                                               ; preds = %128, %73
  %78 = load i32, ptr %16, align 4
  %79 = load i32, ptr %15, align 4
  %80 = icmp ult i32 %78, %79
  br i1 %80, label %81, label %131

81:                                               ; preds = %77
  %82 = load ptr, ptr %7, align 8
  %83 = load i32, ptr %16, align 4
  %84 = zext i32 %83 to i64
  %85 = getelementptr inbounds i8, ptr %82, i64 %84
  %86 = load i8, ptr %85, align 1
  store i8 %86, ptr %17, align 1
  %87 = load ptr, ptr %7, align 8
  %88 = load i32, ptr %16, align 4
  %89 = add i32 %88, 1
  %90 = zext i32 %89 to i64
  %91 = getelementptr inbounds i8, ptr %87, i64 %90
  %92 = load i8, ptr %91, align 1
  store i8 %92, ptr %18, align 1
  %93 = load i8, ptr %17, align 1
  %94 = zext i8 %93 to i32
  %95 = and i32 %94, 240
  %96 = icmp ne i32 %95, 96
  br i1 %96, label %102, label %97

97:                                               ; preds = %81
  %98 = load i8, ptr %18, align 1
  %99 = zext i8 %98 to i32
  %100 = and i32 %99, 240
  %101 = icmp ne i32 %100, 96
  br label %102

102:                                              ; preds = %97, %81
  %103 = phi i1 [ true, %81 ], [ %101, %97 ]
  %104 = xor i1 %103, true
  %105 = xor i1 %104, true
  %106 = zext i1 %105 to i32
  %107 = sext i32 %106 to i64
  %108 = icmp ne i64 %107, 0
  br i1 %108, label %109, label %116

109:                                              ; preds = %102
  %110 = load i8, ptr %17, align 1
  %111 = zext i8 %110 to i32
  %112 = load i8, ptr %18, align 1
  %113 = zext i8 %112 to i32
  call void (ptr, ...) @cli_errmsg(ptr noundef @.str.285, i32 noundef %111, i32 noundef %113)
  %114 = load ptr, ptr %10, align 8
  store i8 0, ptr %114, align 1
  %115 = load ptr, ptr %12, align 8
  call void @free(ptr noundef %115) #10
  store ptr null, ptr %6, align 8
  br label %137

116:                                              ; preds = %102
  %117 = load i8, ptr %17, align 1
  %118 = zext i8 %117 to i32
  %119 = and i32 %118, 15
  %120 = load i8, ptr %18, align 1
  %121 = zext i8 %120 to i32
  %122 = and i32 %121, 15
  %123 = shl i32 %122, 4
  %124 = or i32 %119, %123
  %125 = trunc i32 %124 to i8
  %126 = load ptr, ptr %13, align 8
  %127 = getelementptr inbounds i8, ptr %126, i32 1
  store ptr %127, ptr %13, align 8
  store i8 %125, ptr %126, align 1
  br label %128

128:                                              ; preds = %116
  %129 = load i32, ptr %16, align 4
  %130 = add i32 %129, 2
  store i32 %130, ptr %16, align 4
  br label %77

131:                                              ; preds = %77
  %132 = load i32, ptr %15, align 4
  %133 = load ptr, ptr %8, align 8
  store i32 %132, ptr %133, align 4
  %134 = load i32, ptr %14, align 4
  %135 = load ptr, ptr %11, align 8
  store i32 %134, ptr %135, align 4
  %136 = load ptr, ptr %12, align 8
  store ptr %136, ptr %6, align 8
  br label %137

137:                                              ; preds = %131, %109, %71, %63, %51, %27
  %138 = load ptr, ptr %6, align 8
  ret ptr %138
}