; Function Attrs: nounwind uwtable
define internal fastcc noalias noundef ptr @readData(ptr nocapture noundef readonly %0, ptr nocapture noundef %1, i32 noundef %2, ptr noundef writeonly %3, ptr nocapture noundef writeonly %4) unnamed_addr #0 {
  %6 = load i32, ptr %1, align 4
  %7 = zext i32 %6 to i64
  %8 = getelementptr inbounds i8, ptr %0, i64 %7
  %9 = load i8, ptr %8, align 1
  %.not = icmp eq i8 %9, 124
  br i1 %.not, label %12, label %10

10:                                               ; preds = %5
  %11 = zext i8 %9 to i32
  tail call void (ptr, ...) @cli_errmsg(ptr noundef nonnull @.str.282, i32 noundef %11) #25
  store i8 0, ptr %3, align 1
  br label %80

12:                                               ; preds = %5
  %13 = add i32 %6, 1
  store i32 %13, ptr %1, align 4
  %14 = zext i32 %13 to i64
  %15 = getelementptr inbounds i8, ptr %0, i64 %14
  %16 = load i8, ptr %15, align 1
  %17 = zext i8 %16 to i32
  %18 = add nsw i32 %17, -96
  %19 = icmp ugt i32 %18, 16
  br i1 %19, label %20, label %21

20:                                               ; preds = %12
  tail call void (ptr, ...) @cli_errmsg(ptr noundef nonnull @.str.278, i32 noundef %17) #25
  store i8 0, ptr %3, align 1
  br label %readNumber.exit.thread

21:                                               ; preds = %12
  %22 = add i32 %6, 2
  %23 = add i32 %18, %22
  %24 = icmp ugt i32 %23, %2
  br i1 %24, label %25, label %26

25:                                               ; preds = %21
  tail call void (ptr, ...) @cli_errmsg(ptr noundef nonnull @.str.279) #25
  store i8 0, ptr %3, align 1
  br label %readNumber.exit.thread

26:                                               ; preds = %21
  %27 = icmp eq i8 %16, 96
  br i1 %27, label %31, label %.preheader.i

.preheader.i:                                     ; preds = %26
  %28 = icmp ult i32 %22, %23
  br i1 %28, label %.lr.ph.i.preheader, label %readNumber.exit.thread56

.lr.ph.i.preheader:                               ; preds = %.preheader.i
  %29 = zext i32 %22 to i64
  %30 = zext i32 %23 to i64
  br label %.lr.ph.i

readNumber.exit.thread56:                         ; preds = %.preheader.i
  store i32 %23, ptr %1, align 4
  br label %readNumber.exit.thread

31:                                               ; preds = %26
  store i32 %23, ptr %1, align 4
  br label %readNumber.exit.thread

.lr.ph.i:                                         ; preds = %.lr.ph.i.preheader, %38
  %indvars.iv = phi i64 [ %29, %.lr.ph.i.preheader ], [ %indvars.iv.next, %38 ]
  %.040.i = phi i32 [ 0, %.lr.ph.i.preheader ], [ %43, %38 ]
  %.03339.i = phi i64 [ 0, %.lr.ph.i.preheader ], [ %42, %38 ]
  %32 = getelementptr inbounds i8, ptr %0, i64 %indvars.iv
  %33 = load i8, ptr %32, align 1
  %34 = zext i8 %33 to i64
  %35 = and i64 %34, 240
  %.not.i = icmp eq i64 %35, 96
  br i1 %.not.i, label %38, label %36

36:                                               ; preds = %.lr.ph.i
  %37 = sext i8 %33 to i32
  tail call void (ptr, ...) @cli_errmsg(ptr noundef nonnull @.str.280, i32 noundef %37) #25
  store i8 0, ptr %3, align 1
  br label %readNumber.exit.thread

38:                                               ; preds = %.lr.ph.i
  %39 = and i64 %34, 15
  %40 = zext nneg i32 %.040.i to i64
  %41 = shl i64 %39, %40
  %42 = or i64 %41, %.03339.i
  %43 = add i32 %.040.i, 4
  %indvars.iv.next = add nuw nsw i64 %indvars.iv, 1
  %exitcond.not.i = icmp eq i64 %indvars.iv.next, %30
  br i1 %exitcond.not.i, label %readNumber.exit, label %.lr.ph.i

readNumber.exit:                                  ; preds = %38
  store i32 %23, ptr %1, align 4
  %44 = trunc i64 %42 to i32
  %45 = icmp ne i32 %44, 0
  %46 = icmp ne ptr %3, null
  %or.cond = and i1 %46, %45
  br i1 %or.cond, label %48, label %readNumber.exit.thread

readNumber.exit.thread:                           ; preds = %36, %31, %25, %20, %readNumber.exit.thread56, %readNumber.exit
  %47 = phi i32 [ %44, %readNumber.exit ], [ 0, %readNumber.exit.thread56 ], [ 0, %20 ], [ 0, %25 ], [ 0, %31 ], [ 0, %36 ]
  store i32 %47, ptr %4, align 4
  br label %80

48:                                               ; preds = %readNumber.exit
  %49 = shl i32 %44, 1
  %50 = add i32 %23, %49
  %51 = icmp ugt i32 %50, %2
  br i1 %51, label %52, label %53

52:                                               ; preds = %48
  tail call void (ptr, ...) @cli_errmsg(ptr noundef nonnull @.str.283) #25
  store i8 0, ptr %3, align 1
  br label %80

53:                                               ; preds = %48
  %54 = and i64 %42, 4294967295
  %55 = tail call noalias ptr @malloc(i64 noundef %54) #26
  %.not53 = icmp eq ptr %55, null
  br i1 %.not53, label %57, label %.preheader

.preheader:                                       ; preds = %53
  %56 = icmp ult i32 %23, %50
  br i1 %56, label %.lr.ph, label %._crit_edge

57:                                               ; preds = %53
  tail call void (ptr, ...) @cli_errmsg(ptr noundef nonnull @.str.284) #25
  store i8 0, ptr %3, align 1
  br label %80

.lr.ph:                                           ; preds = %.preheader, %73
  %.04664 = phi ptr [ %77, %73 ], [ %55, %.preheader ]
  %.04763 = phi i32 [ %78, %73 ], [ %23, %.preheader ]
  %58 = zext i32 %.04763 to i64
  %59 = getelementptr inbounds i8, ptr %0, i64 %58
  %60 = load i8, ptr %59, align 1
  %61 = add nuw i32 %.04763, 1
  %62 = zext i32 %61 to i64
  %63 = getelementptr inbounds i8, ptr %0, i64 %62
  %64 = load i8, ptr %63, align 1
  %65 = zext i8 %60 to i32
  %66 = and i32 %65, 240
  %67 = icmp ne i32 %66, 96
  %68 = zext i8 %64 to i32
  %69 = and i32 %68, 240
  %70 = icmp ne i32 %69, 96
  %71 = select i1 %67, i1 true, i1 %70
  br i1 %71, label %72, label %73

72:                                               ; preds = %.lr.ph
  tail call void (ptr, ...) @cli_errmsg(ptr noundef nonnull @.str.285, i32 noundef %65, i32 noundef %68) #25
  store i8 0, ptr %3, align 1
  tail call void @free(ptr noundef %55) #25
  br label %80

73:                                               ; preds = %.lr.ph
  %74 = and i8 %60, 15
  %75 = shl i8 %64, 4
  %76 = or disjoint i8 %75, %74
  %77 = getelementptr inbounds i8, ptr %.04664, i64 1
  store i8 %76, ptr %.04664, align 1
  %78 = add i32 %.04763, 2
  %79 = icmp ult i32 %78, %50
  br i1 %79, label %.lr.ph, label %._crit_edge

._crit_edge:                                      ; preds = %73, %.preheader
  store i32 %50, ptr %1, align 4
  store i32 %44, ptr %4, align 4
  br label %80

80:                                               ; preds = %._crit_edge, %72, %57, %52, %readNumber.exit.thread, %10
  %.0 = phi ptr [ null, %10 ], [ null, %52 ], [ null, %72 ], [ %55, %._crit_edge ], [ null, %57 ], [ null, %readNumber.exit.thread ]
  ret ptr %.0
}